; Function Attrs: mustprogress nounwind uwtable
define dso_local noundef zeroext i1 @_ZN4llvm32StackSafetyGlobalInfoWrapperPass11runOnModuleERNS_6ModuleE(ptr noundef nonnull align 8 dereferenceable(88) %0, ptr noundef nonnull align 8 dereferenceable(857) %1) unnamed_addr #0 align 2 {
  %3 = alloca %"class.llvm::StackSafetyGlobalInfo", align 8
  %4 = alloca %"class.std::function.112", align 8
  %5 = getelementptr inbounds nuw i8, ptr %0, i64 8
  %6 = load ptr, ptr %5, align 8
  %7 = tail call noundef ptr @_ZNK4llvm16AnalysisResolver22getAnalysisIfAvailableEPKv(ptr noundef nonnull align 8 dereferenceable(32) %6, ptr noundef nonnull @_ZN4llvm38ImmutableModuleSummaryIndexWrapperPass2IDE) #25
  %.not.i = icmp eq ptr %7, null
  br i1 %.not.i, label %_ZNK4llvm4Pass22getAnalysisIfAvailableINS_38ImmutableModuleSummaryIndexWrapperPassEEEPT_v.exit.thread, label %_ZNK4llvm4Pass22getAnalysisIfAvailableINS_38ImmutableModuleSummaryIndexWrapperPassEEEPT_v.exit

_ZNK4llvm4Pass22getAnalysisIfAvailableINS_38ImmutableModuleSummaryIndexWrapperPassEEEPT_v.exit: ; preds = %2
  %8 = load ptr, ptr %7, align 8
  %9 = getelementptr inbounds nuw i8, ptr %8, i64 96
  %10 = load ptr, ptr %9, align 8
  %11 = tail call noundef ptr %10(ptr noundef nonnull align 8 dereferenceable(28) %7, ptr noundef nonnull @_ZN4llvm38ImmutableModuleSummaryIndexWrapperPass2IDE) #25
  %.not = icmp eq ptr %11, null
  br i1 %.not, label %_ZNK4llvm4Pass22getAnalysisIfAvailableINS_38ImmutableModuleSummaryIndexWrapperPassEEEPT_v.exit.thread, label %12

12:                                               ; preds = %_ZNK4llvm4Pass22getAnalysisIfAvailableINS_38ImmutableModuleSummaryIndexWrapperPassEEEPT_v.exit
  %13 = getelementptr inbounds nuw i8, ptr %11, i64 32
  %14 = load ptr, ptr %13, align 8
  br label %_ZNK4llvm4Pass22getAnalysisIfAvailableINS_38ImmutableModuleSummaryIndexWrapperPassEEEPT_v.exit.thread

_ZNK4llvm4Pass22getAnalysisIfAvailableINS_38ImmutableModuleSummaryIndexWrapperPassEEEPT_v.exit.thread: ; preds = %2, %12, %_ZNK4llvm4Pass22getAnalysisIfAvailableINS_38ImmutableModuleSummaryIndexWrapperPassEEEPT_v.exit
  %.0 = phi ptr [ %14, %12 ], [ null, %_ZNK4llvm4Pass22getAnalysisIfAvailableINS_38ImmutableModuleSummaryIndexWrapperPassEEEPT_v.exit ], [ null, %2 ]
  %15 = ptrtoint ptr %0 to i64
  %16 = getelementptr inbounds nuw i8, ptr %4, i64 16
  %17 = getelementptr inbounds nuw i8, ptr %4, i64 24
  %18 = getelementptr inbounds nuw i8, ptr %4, i64 8
  store i64 0, ptr %18, align 8
  store i64 %15, ptr %4, align 8
  store ptr @"_ZNSt17_Function_handlerIFRKN4llvm15StackSafetyInfoERNS0_8FunctionEEZNS0_32StackSafetyGlobalInfoWrapperPass11runOnModuleERNS0_6ModuleEE3$_0E9_M_invokeERKSt9_Any_dataS5_", ptr %17, align 8
  store ptr @"_ZNSt17_Function_handlerIFRKN4llvm15StackSafetyInfoERNS0_8FunctionEEZNS0_32StackSafetyGlobalInfoWrapperPass11runOnModuleERNS0_6ModuleEE3$_0E10_M_managerERSt9_Any_dataRKSC_St18_Manager_operation", ptr %16, align 8
  call void @_ZN4llvm21StackSafetyGlobalInfoC1EPNS_6ModuleESt8functionIFRKNS_15StackSafetyInfoERNS_8FunctionEEEPKNS_18ModuleSummaryIndexE(ptr noundef nonnull align 8 dereferenceable(56) %3, ptr noundef nonnull %1, ptr noundef nonnull %4, ptr noundef %.0) #25
  %19 = getelementptr inbounds nuw i8, ptr %0, i64 32
  %20 = call noundef nonnull align 8 dereferenceable(56) ptr @_ZN4llvm21StackSafetyGlobalInfoaSEOS0_(ptr noundef nonnull align 8 dereferenceable(56) %19, ptr noundef nonnull align 8 dereferenceable(56) %3)
  call void @_ZN4llvm21StackSafetyGlobalInfoD1Ev(ptr noundef nonnull align 8 dereferenceable(56) %3) #25
  %21 = load ptr, ptr %16, align 8
  %.not.i.i = icmp eq ptr %21, null
  br i1 %.not.i.i, label %_ZNSt8functionIFRKN4llvm15StackSafetyInfoERNS0_8FunctionEEED2Ev.exit, label %22

22:                                               ; preds = %_ZNK4llvm4Pass22getAnalysisIfAvailableINS_38ImmutableModuleSummaryIndexWrapperPassEEEPT_v.exit.thread
  %23 = call noundef zeroext i1 %21(ptr noundef nonnull align 8 dereferenceable(32) %4, ptr noundef nonnull align 8 dereferenceable(32) %4, i32 noundef 3) #25
  br label %_ZNSt8functionIFRKN4llvm15StackSafetyInfoERNS0_8FunctionEEED2Ev.exit

_ZNSt8functionIFRKN4llvm15StackSafetyInfoERNS0_8FunctionEEED2Ev.exit: ; preds = %_ZNK4llvm4Pass22getAnalysisIfAvailableINS_38ImmutableModuleSummaryIndexWrapperPassEEEPT_v.exit.thread, %22
  ret i1 false
}